target datalayout = "e-m:e-p270:32:32-p271:32:32-p272:64:64-i64:64-i128:128-f80:128-n8:16:32:64-S128"
target triple = "x86_64-pc-linux-gnu"

%struct.LWLock = type { i16, %struct.pg_atomic_uint32, %struct.proclist_head }
%struct.pg_atomic_uint32 = type { i32 }
%struct.proclist_head = type { i32, i32 }
%struct.PGPROC = type { %struct.dlist_node, ptr, ptr, i32, %struct.Latch, i32, i32, i32, i32, %struct.anon, i32, i32, i32, i8, i8, i8, i8, %struct.proclist_node, %struct.proclist_node, ptr, ptr, i32, i32, %struct.pg_atomic_uint64, i32, i8, i64, i32, %struct.dlist_node, [16 x %struct.dlist_head], %struct.XidCacheStatus, %struct.XidCache, i8, %struct.pg_atomic_uint32, i32, i32, i8, %struct.pg_atomic_uint32, i32, i32, i64, i64, %struct.LWLock, ptr, ptr, i8, i32, ptr, %struct.dlist_head, %struct.dlist_node }
%struct.Latch = type { i32, i32, i8, i32 }
%struct.anon = type { i32, i32 }
%struct.proclist_node = type { i32, i32 }
%struct.pg_atomic_uint64 = type { i64 }
%struct.XidCacheStatus = type { i8, i8 }
%struct.XidCache = type { [64 x i32] }
%struct.dlist_head = type { %struct.dlist_node }
%struct.dlist_node = type { ptr, ptr }
%struct.PROC_HDR = type { ptr, ptr, ptr, ptr, i32, %struct.dlist_head, %struct.dlist_head, %struct.dlist_head, %struct.dlist_head, %struct.pg_atomic_uint32, %struct.pg_atomic_uint32, i32, i32, i32, i32 }
%struct.SpinDelayStatus = type { i32, i32, i32, ptr, i32, ptr }

@.str.1 = private unnamed_addr constant [9 x i8] c"lwlock.c\00", align 1
@MyProc = external global ptr, align 8
@ProcGlobal = external global ptr, align 8
@.str.87 = private unnamed_addr constant [39 x i8] c"cannot wait without a PGPROC structure\00", align 1
@__func__.LWLockQueueSelf = private unnamed_addr constant [16 x i8] c"LWLockQueueSelf\00", align 1
@.str.88 = private unnamed_addr constant [47 x i8] c"queueing for lock while waiting on another one\00", align 1
@MyProcNumber = external global i32, align 4
@__func__.LWLockWaitListLock = private unnamed_addr constant [19 x i8] c"LWLockWaitListLock\00", align 1

; Function Attrs: inlinehint nounwind uwtable
define internal i32 @pg_atomic_fetch_and_u32_impl(ptr noundef %0, i32 noundef %1) #5 {
  %3 = alloca ptr, align 8
  %4 = alloca i32, align 4
  store ptr %0, ptr %3, align 8
  store i32 %1, ptr %4, align 4
  %5 = load ptr, ptr %3, align 8
  %6 = getelementptr inbounds nuw %struct.pg_atomic_uint32, ptr %5, i32 0, i32 0
  %7 = load i32, ptr %4, align 4
  %8 = atomicrmw and ptr %6, i32 %7 seq_cst, align 4
  ret i32 %8
}

; Function Attrs: inlinehint nounwind uwtable
define internal i32 @pg_atomic_read_u32_impl(ptr noundef %0) #5 {
  %2 = alloca ptr, align 8
  store ptr %0, ptr %2, align 8
  %3 = load ptr, ptr %2, align 8
  %4 = getelementptr inbounds nuw %struct.pg_atomic_uint32, ptr %3, i32 0, i32 0
  %5 = load volatile i32, ptr %4, align 4
  ret i32 %5
}

; Function Attrs: inlinehint nounwind uwtable
define internal i32 @pg_atomic_fetch_and_u32(ptr noundef %0, i32 noundef %1) #5 {
  %3 = alloca ptr, align 8
  %4 = alloca i32, align 4
  store ptr %0, ptr %3, align 8
  store i32 %1, ptr %4, align 4
  %5 = load ptr, ptr %3, align 8
  %6 = load i32, ptr %4, align 4
  %7 = call i32 @pg_atomic_fetch_and_u32_impl(ptr noundef %5, i32 noundef %6)
  ret i32 %7
}

; Function Attrs: inlinehint nounwind uwtable
define internal ptr @proclist_node_get(i32 noundef %0, i64 noundef %1) #5 {
  %3 = alloca i32, align 4
  %4 = alloca i64, align 8
  %5 = alloca ptr, align 8
  store i32 %0, ptr %3, align 4
  store i64 %1, ptr %4, align 8
  call void @llvm.lifetime.start.p0(i64 8, ptr %5) #9
  %6 = load ptr, ptr @ProcGlobal, align 8
  %7 = getelementptr inbounds nuw %struct.PROC_HDR, ptr %6, i32 0, i32 0
  %8 = load ptr, ptr %7, align 8
  %9 = load i32, ptr %3, align 4
  %10 = sext i32 %9 to i64
  %11 = getelementptr inbounds %struct.PGPROC, ptr %8, i64 %10
  store ptr %11, ptr %5, align 8
  %12 = load ptr, ptr %5, align 8
  %13 = load i64, ptr %4, align 8
  %14 = getelementptr inbounds nuw i8, ptr %12, i64 %13
  call void @llvm.lifetime.end.p0(i64 8, ptr %5) #9
  ret ptr %14
}

; Function Attrs: inlinehint nounwind uwtable
define internal i32 @pg_atomic_fetch_or_u32_impl(ptr noundef %0, i32 noundef %1) #5 {
  %3 = alloca ptr, align 8
  %4 = alloca i32, align 4
  store ptr %0, ptr %3, align 8
  store i32 %1, ptr %4, align 4
  %5 = load ptr, ptr %3, align 8
  %6 = getelementptr inbounds nuw %struct.pg_atomic_uint32, ptr %5, i32 0, i32 0
  %7 = load i32, ptr %4, align 4
  %8 = atomicrmw or ptr %6, i32 %7 seq_cst, align 4
  ret i32 %8
}

; Function Attrs: inlinehint nounwind uwtable
define internal i32 @pg_atomic_read_u32(ptr noundef %0) #5 {
  %2 = alloca ptr, align 8
  store ptr %0, ptr %2, align 8
  %3 = load ptr, ptr %2, align 8
  %4 = call i32 @pg_atomic_read_u32_impl(ptr noundef %3)
  ret i32 %4
}

; Function Attrs: inlinehint nounwind uwtable
define internal void @init_spin_delay(ptr noundef %0, ptr noundef %1, i32 noundef %2, ptr noundef %3) #5 {
  %5 = alloca ptr, align 8
  %6 = alloca ptr, align 8
  %7 = alloca i32, align 4
  %8 = alloca ptr, align 8
  store ptr %0, ptr %5, align 8
  store ptr %1, ptr %6, align 8
  store i32 %2, ptr %7, align 4
  store ptr %3, ptr %8, align 8
  %9 = load ptr, ptr %5, align 8
  %10 = getelementptr inbounds nuw %struct.SpinDelayStatus, ptr %9, i32 0, i32 0
  store i32 0, ptr %10, align 8
  %11 = load ptr, ptr %5, align 8
  %12 = getelementptr inbounds nuw %struct.SpinDelayStatus, ptr %11, i32 0, i32 1
  store i32 0, ptr %12, align 4
  %13 = load ptr, ptr %5, align 8
  %14 = getelementptr inbounds nuw %struct.SpinDelayStatus, ptr %13, i32 0, i32 2
  store i32 0, ptr %14, align 8
  %15 = load ptr, ptr %6, align 8
  %16 = load ptr, ptr %5, align 8
  %17 = getelementptr inbounds nuw %struct.SpinDelayStatus, ptr %16, i32 0, i32 3
  store ptr %15, ptr %17, align 8
  %18 = load i32, ptr %7, align 4
  %19 = load ptr, ptr %5, align 8
  %20 = getelementptr inbounds nuw %struct.SpinDelayStatus, ptr %19, i32 0, i32 4
  store i32 %18, ptr %20, align 8
  %21 = load ptr, ptr %8, align 8
  %22 = load ptr, ptr %5, align 8
  %23 = getelementptr inbounds nuw %struct.SpinDelayStatus, ptr %22, i32 0, i32 5
  store ptr %21, ptr %23, align 8
  ret void
}

; Function Attrs: nounwind uwtable
define internal void @LWLockWaitListUnlock(ptr noundef %0) #0 {
  %2 = alloca ptr, align 8
  %3 = alloca i32, align 4
  store ptr %0, ptr %2, align 8
  call void @llvm.lifetime.start.p0(i64 4, ptr %3) #9
  %4 = load ptr, ptr %2, align 8
  %5 = getelementptr inbounds nuw %struct.LWLock, ptr %4, i32 0, i32 1
  %6 = call i32 @pg_atomic_fetch_and_u32(ptr noundef %5, i32 noundef -268435457)
  store i32 %6, ptr %3, align 4
  call void @llvm.lifetime.end.p0(i64 4, ptr %3) #9
  ret void
}

; Function Attrs: inlinehint nounwind uwtable
define internal void @proclist_push_tail_offset(ptr noundef %0, i32 noundef %1, i64 noundef %2) #5 {
  %4 = alloca ptr, align 8
  %5 = alloca i32, align 4
  %6 = alloca i64, align 8
  %7 = alloca ptr, align 8
  store ptr %0, ptr %4, align 8
  store i32 %1, ptr %5, align 4
  store i64 %2, ptr %6, align 8
  call void @llvm.lifetime.start.p0(i64 8, ptr %7) #9
  %8 = load i32, ptr %5, align 4
  %9 = load i64, ptr %6, align 8
  %10 = call ptr @proclist_node_get(i32 noundef %8, i64 noundef %9)
  store ptr %10, ptr %7, align 8
  %11 = load ptr, ptr %4, align 8
  %12 = getelementptr inbounds nuw %struct.proclist_head, ptr %11, i32 0, i32 1
  %13 = load i32, ptr %12, align 4
  %14 = icmp eq i32 %13, -1
  br i1 %14, label %15, label %25

15:                                               ; preds = %3
  %16 = load ptr, ptr %7, align 8
  %17 = getelementptr inbounds nuw %struct.proclist_node, ptr %16, i32 0, i32 1
  store i32 -1, ptr %17, align 4
  %18 = load ptr, ptr %7, align 8
  %19 = getelementptr inbounds nuw %struct.proclist_node, ptr %18, i32 0, i32 0
  store i32 -1, ptr %19, align 4
  %20 = load i32, ptr %5, align 4
  %21 = load ptr, ptr %4, align 8
  %22 = getelementptr inbounds nuw %struct.proclist_head, ptr %21, i32 0, i32 1
  store i32 %20, ptr %22, align 4
  %23 = load ptr, ptr %4, align 8
  %24 = getelementptr inbounds nuw %struct.proclist_head, ptr %23, i32 0, i32 0
  store i32 %20, ptr %24, align 4
  br label %43

25:                                               ; preds = %3
  %26 = load ptr, ptr %4, align 8
  %27 = getelementptr inbounds nuw %struct.proclist_head, ptr %26, i32 0, i32 1
  %28 = load i32, ptr %27, align 4
  %29 = load ptr, ptr %7, align 8
  %30 = getelementptr inbounds nuw %struct.proclist_node, ptr %29, i32 0, i32 1
  store i32 %28, ptr %30, align 4
  %31 = load i32, ptr %5, align 4
  %32 = load ptr, ptr %7, align 8
  %33 = getelementptr inbounds nuw %struct.proclist_node, ptr %32, i32 0, i32 1
  %34 = load i32, ptr %33, align 4
  %35 = load i64, ptr %6, align 8
  %36 = call ptr @proclist_node_get(i32 noundef %34, i64 noundef %35)
  %37 = getelementptr inbounds nuw %struct.proclist_node, ptr %36, i32 0, i32 0
  store i32 %31, ptr %37, align 4
  %38 = load ptr, ptr %7, align 8
  %39 = getelementptr inbounds nuw %struct.proclist_node, ptr %38, i32 0, i32 0
  store i32 -1, ptr %39, align 4
  %40 = load i32, ptr %5, align 4
  %41 = load ptr, ptr %4, align 8
  %42 = getelementptr inbounds nuw %struct.proclist_head, ptr %41, i32 0, i32 1
  store i32 %40, ptr %42, align 4
  br label %43

43:                                               ; preds = %25, %15
  call void @llvm.lifetime.end.p0(i64 8, ptr %7) #9
  ret void
}

; Function Attrs: inlinehint nounwind uwtable
define internal void @proclist_push_head_offset(ptr noundef %0, i32 noundef %1, i64 noundef %2) #5 {
  %4 = alloca ptr, align 8
  %5 = alloca i32, align 4
  %6 = alloca i64, align 8
  %7 = alloca ptr, align 8
  store ptr %0, ptr %4, align 8
  store i32 %1, ptr %5, align 4
  store i64 %2, ptr %6, align 8
  call void @llvm.lifetime.start.p0(i64 8, ptr %7) #9
  %8 = load i32, ptr %5, align 4
  %9 = load i64, ptr %6, align 8
  %10 = call ptr @proclist_node_get(i32 noundef %8, i64 noundef %9)
  store ptr %10, ptr %7, align 8
  %11 = load ptr, ptr %4, align 8
  %12 = getelementptr inbounds nuw %struct.proclist_head, ptr %11, i32 0, i32 0
  %13 = load i32, ptr %12, align 4
  %14 = icmp eq i32 %13, -1
  br i1 %14, label %15, label %25

15:                                               ; preds = %3
  %16 = load ptr, ptr %7, align 8
  %17 = getelementptr inbounds nuw %struct.proclist_node, ptr %16, i32 0, i32 1
  store i32 -1, ptr %17, align 4
  %18 = load ptr, ptr %7, align 8
  %19 = getelementptr inbounds nuw %struct.proclist_node, ptr %18, i32 0, i32 0
  store i32 -1, ptr %19, align 4
  %20 = load i32, ptr %5, align 4
  %21 = load ptr, ptr %4, align 8
  %22 = getelementptr inbounds nuw %struct.proclist_head, ptr %21, i32 0, i32 1
  store i32 %20, ptr %22, align 4
  %23 = load ptr, ptr %4, align 8
  %24 = getelementptr inbounds nuw %struct.proclist_head, ptr %23, i32 0, i32 0
  store i32 %20, ptr %24, align 4
  br label %43

25:                                               ; preds = %3
  %26 = load ptr, ptr %4, align 8
  %27 = getelementptr inbounds nuw %struct.proclist_head, ptr %26, i32 0, i32 0
  %28 = load i32, ptr %27, align 4
  %29 = load ptr, ptr %7, align 8
  %30 = getelementptr inbounds nuw %struct.proclist_node, ptr %29, i32 0, i32 0
  store i32 %28, ptr %30, align 4
  %31 = load i32, ptr %5, align 4
  %32 = load ptr, ptr %7, align 8
  %33 = getelementptr inbounds nuw %struct.proclist_node, ptr %32, i32 0, i32 0
  %34 = load i32, ptr %33, align 4
  %35 = load i64, ptr %6, align 8
  %36 = call ptr @proclist_node_get(i32 noundef %34, i64 noundef %35)
  %37 = getelementptr inbounds nuw %struct.proclist_node, ptr %36, i32 0, i32 1
  store i32 %31, ptr %37, align 4
  %38 = load ptr, ptr %7, align 8
  %39 = getelementptr inbounds nuw %struct.proclist_node, ptr %38, i32 0, i32 1
  store i32 -1, ptr %39, align 4
  %40 = load i32, ptr %5, align 4
  %41 = load ptr, ptr %4, align 8
  %42 = getelementptr inbounds nuw %struct.proclist_head, ptr %41, i32 0, i32 0
  store i32 %40, ptr %42, align 4
  br label %43

43:                                               ; preds = %25, %15
  call void @llvm.lifetime.end.p0(i64 8, ptr %7) #9
  ret void
}

; Function Attrs: inlinehint nounwind uwtable
define internal i32 @pg_atomic_fetch_or_u32(ptr noundef %0, i32 noundef %1) #5 {
  %3 = alloca ptr, align 8
  %4 = alloca i32, align 4
  store ptr %0, ptr %3, align 8
  store i32 %1, ptr %4, align 4
  %5 = load ptr, ptr %3, align 8
  %6 = load i32, ptr %4, align 4
  %7 = call i32 @pg_atomic_fetch_or_u32_impl(ptr noundef %5, i32 noundef %6)
  ret i32 %7
}

; Function Attrs: nounwind uwtable
define internal void @LWLockWaitListLock(ptr noundef %0) #0 {
  %2 = alloca ptr, align 8
  %3 = alloca i32, align 4
  %4 = alloca %struct.SpinDelayStatus, align 8
  store ptr %0, ptr %2, align 8
  call void @llvm.lifetime.start.p0(i64 4, ptr %3) #9
  br label %5

5:                                                ; preds = %23, %1
  br label %6

6:                                                ; preds = %5
  %7 = load ptr, ptr %2, align 8
  %8 = getelementptr inbounds nuw %struct.LWLock, ptr %7, i32 0, i32 1
  %9 = call i32 @pg_atomic_fetch_or_u32(ptr noundef %8, i32 noundef 268435456)
  store i32 %9, ptr %3, align 4
  %10 = load i32, ptr %3, align 4
  %11 = and i32 %10, 268435456
  %12 = icmp ne i32 %11, 0
  br i1 %12, label %14, label %13

13:                                               ; preds = %6
  br label %24

14:                                               ; preds = %6
  call void @llvm.lifetime.start.p0(i64 40, ptr %4) #9
  call void @init_spin_delay(ptr noundef %4, ptr noundef @.str.1, i32 noundef 876, ptr noundef @__func__.LWLockWaitListLock)
  br label %15

15:                                               ; preds = %19, %14
  %16 = load i32, ptr %3, align 4
  %17 = and i32 %16, 268435456
  %18 = icmp ne i32 %17, 0
  br i1 %18, label %19, label %23

19:                                               ; preds = %15
  call void @perform_spin_delay(ptr noundef %4)
  %20 = load ptr, ptr %2, align 8
  %21 = getelementptr inbounds nuw %struct.LWLock, ptr %20, i32 0, i32 1
  %22 = call i32 @pg_atomic_read_u32(ptr noundef %21)
  store i32 %22, ptr %3, align 4
  br label %15, !llvm.loop !26

23:                                               ; preds = %15
  call void @finish_spin_delay(ptr noundef %4)
  call void @llvm.lifetime.end.p0(i64 40, ptr %4) #9
  br label %5

24:                                               ; preds = %13
  call void @llvm.lifetime.end.p0(i64 4, ptr %3) #9
  ret void
}

; Function Attrs: nounwind uwtable
define internal void @LWLockQueueSelf(ptr noundef %0, i32 noundef %1) #0 {
  %3 = alloca ptr, align 8
  %4 = alloca i32, align 4
  store ptr %0, ptr %3, align 8
  store i32 %1, ptr %4, align 4
  %5 = load ptr, ptr @MyProc, align 8
  %6 = icmp eq ptr %5, null
  br i1 %6, label %7, label %17

7:                                                ; preds = %2
  br label %8

8:                                                ; preds = %7
  br i1 true, label %9, label %11

9:                                                ; preds = %8
  %10 = call zeroext i1 @errstart_cold(i32 noundef 23, ptr noundef null) #11
  br i1 %10, label %13, label %15

11:                                               ; preds = %8
  %12 = call zeroext i1 @errstart(i32 noundef 23, ptr noundef null)
  br i1 %12, label %13, label %15

13:                                               ; preds = %11, %9
  %14 = call i32 (ptr, ...) @errmsg_internal(ptr noundef @.str.87)
  call void @errfinish(ptr noundef @.str.1, i32 noundef 1044, ptr noundef @__func__.LWLockQueueSelf)
  br label %15

15:                                               ; preds = %13, %11, %9
  unreachable

16:                                               ; No predecessors!
  br label %17

17:                                               ; preds = %16, %2
  %18 = load ptr, ptr @MyProc, align 8
  %19 = getelementptr inbounds nuw %struct.PGPROC, ptr %18, i32 0, i32 15
  %20 = load i8, ptr %19, align 2
  %21 = zext i8 %20 to i32
  %22 = icmp ne i32 %21, 0
  br i1 %22, label %23, label %33

23:                                               ; preds = %17
  br label %24

24:                                               ; preds = %23
  br i1 true, label %25, label %27

25:                                               ; preds = %24
  %26 = call zeroext i1 @errstart_cold(i32 noundef 23, ptr noundef null) #11
  br i1 %26, label %29, label %31

27:                                               ; preds = %24
  %28 = call zeroext i1 @errstart(i32 noundef 23, ptr noundef null)
  br i1 %28, label %29, label %31

29:                                               ; preds = %27, %25
  %30 = call i32 (ptr, ...) @errmsg_internal(ptr noundef @.str.88)
  call void @errfinish(ptr noundef @.str.1, i32 noundef 1047, ptr noundef @__func__.LWLockQueueSelf)
  br label %31

31:                                               ; preds = %29, %27, %25
  unreachable

32:                                               ; No predecessors!
  br label %33

33:                                               ; preds = %32, %17
  %34 = load ptr, ptr %3, align 8
  call void @LWLockWaitListLock(ptr noundef %34)
  %35 = load ptr, ptr %3, align 8
  %36 = getelementptr inbounds nuw %struct.LWLock, ptr %35, i32 0, i32 1
  %37 = call i32 @pg_atomic_fetch_or_u32(ptr noundef %36, i32 noundef 1073741824)
  %38 = load ptr, ptr @MyProc, align 8
  %39 = getelementptr inbounds nuw %struct.PGPROC, ptr %38, i32 0, i32 15
  store i8 1, ptr %39, align 2
  %40 = load i32, ptr %4, align 4
  %41 = trunc i32 %40 to i8
  %42 = load ptr, ptr @MyProc, align 8
  %43 = getelementptr inbounds nuw %struct.PGPROC, ptr %42, i32 0, i32 16
  store i8 %41, ptr %43, align 1
  %44 = load i32, ptr %4, align 4
  %45 = icmp eq i32 %44, 2
  br i1 %45, label %46, label %50

46:                                               ; preds = %33
  %47 = load ptr, ptr %3, align 8
  %48 = getelementptr inbounds nuw %struct.LWLock, ptr %47, i32 0, i32 2
  %49 = load i32, ptr @MyProcNumber, align 4
  call void @proclist_push_head_offset(ptr noundef %48, i32 noundef %49, i64 noundef 92)
  br label %54

50:                                               ; preds = %33
  %51 = load ptr, ptr %3, align 8
  %52 = getelementptr inbounds nuw %struct.LWLock, ptr %51, i32 0, i32 2
  %53 = load i32, ptr @MyProcNumber, align 4
  call void @proclist_push_tail_offset(ptr noundef %52, i32 noundef %53, i64 noundef 92)
  br label %54

54:                                               ; preds = %50, %46
  %55 = load ptr, ptr %3, align 8
  call void @LWLockWaitListUnlock(ptr noundef %55)
  ret void
}