; Function Attrs: nounwind uwtable
define internal fastcc void @LWLockQueueSelf(ptr noundef %0, i32 noundef %1) unnamed_addr #0 {
  %3 = alloca %struct.SpinDelayStatus, align 8
  %4 = load ptr, ptr @MyProc, align 8
  %5 = icmp eq ptr %4, null
  br i1 %5, label %6, label %9

6:                                                ; preds = %2
  %7 = tail call zeroext i1 @errstart_cold(i32 noundef 23, ptr noundef null) #17
  tail call void @llvm.assume(i1 %7)
  %8 = tail call i32 (ptr, ...) @errmsg_internal(ptr noundef nonnull @.str.87) #15
  tail call void @errfinish(ptr noundef nonnull @.str.1, i32 noundef 1044, ptr noundef nonnull @__func__.LWLockQueueSelf) #15
  unreachable

9:                                                ; preds = %2
  %10 = getelementptr inbounds nuw i8, ptr %4, i64 90
  %11 = load i8, ptr %10, align 2
  %.not = icmp eq i8 %11, 0
  br i1 %.not, label %15, label %12

12:                                               ; preds = %9
  %13 = tail call zeroext i1 @errstart_cold(i32 noundef 23, ptr noundef null) #17
  tail call void @llvm.assume(i1 %13)
  %14 = tail call i32 (ptr, ...) @errmsg_internal(ptr noundef nonnull @.str.88) #15
  tail call void @errfinish(ptr noundef nonnull @.str.1, i32 noundef 1047, ptr noundef nonnull @__func__.LWLockQueueSelf) #15
  unreachable

15:                                               ; preds = %9
  %16 = getelementptr inbounds nuw i8, ptr %0, i64 4
  %17 = atomicrmw or ptr %16, i32 268435456 seq_cst, align 4
  %18 = and i32 %17, 268435456
  %.not5.i = icmp eq i32 %18, 0
  br i1 %.not5.i, label %LWLockWaitListLock.exit, label %.lr.ph7.i

.lr.ph7.i:                                        ; preds = %15
  %19 = getelementptr inbounds nuw i8, ptr %3, i64 4
  %20 = getelementptr inbounds nuw i8, ptr %3, i64 8
  %21 = getelementptr inbounds nuw i8, ptr %3, i64 16
  %22 = getelementptr inbounds nuw i8, ptr %3, i64 24
  %23 = getelementptr inbounds nuw i8, ptr %3, i64 32
  br label %24

24:                                               ; preds = %._crit_edge.i, %.lr.ph7.i
  %25 = phi i32 [ %17, %.lr.ph7.i ], [ %29, %._crit_edge.i ]
  call void @llvm.lifetime.start.p0(i64 40, ptr nonnull %3) #15
  store i32 0, ptr %3, align 8
  store i32 0, ptr %19, align 4
  store i32 0, ptr %20, align 8
  store ptr @.str.1, ptr %21, align 8
  store i32 876, ptr %22, align 8
  store ptr @__func__.LWLockWaitListLock, ptr %23, align 8
  %26 = and i32 %25, 268435456
  %.not34.i = icmp eq i32 %26, 0
  br i1 %.not34.i, label %._crit_edge.i, label %.lr.ph.i

.lr.ph.i:                                         ; preds = %24, %.lr.ph.i
  call void @perform_spin_delay(ptr noundef nonnull %3) #15
  %27 = load volatile i32, ptr %16, align 4
  %28 = and i32 %27, 268435456
  %.not3.i = icmp eq i32 %28, 0
  br i1 %.not3.i, label %._crit_edge.i, label %.lr.ph.i, !llvm.loop !21

._crit_edge.i:                                    ; preds = %.lr.ph.i, %24
  call void @finish_spin_delay(ptr noundef nonnull %3) #15
  call void @llvm.lifetime.end.p0(i64 40, ptr nonnull %3) #15
  %29 = atomicrmw or ptr %16, i32 268435456 seq_cst, align 4
  %30 = and i32 %29, 268435456
  %.not.i = icmp eq i32 %30, 0
  br i1 %.not.i, label %LWLockWaitListLock.exit, label %24

LWLockWaitListLock.exit:                          ; preds = %._crit_edge.i, %15
  %31 = atomicrmw or ptr %16, i32 1073741824 seq_cst, align 4
  %32 = load ptr, ptr @MyProc, align 8
  %33 = getelementptr inbounds nuw i8, ptr %32, i64 90
  store i8 1, ptr %33, align 2
  %34 = trunc i32 %1 to i8
  %35 = getelementptr inbounds nuw i8, ptr %32, i64 91
  store i8 %34, ptr %35, align 1
  %36 = icmp eq i32 %1, 2
  br i1 %36, label %37, label %54

37:                                               ; preds = %LWLockWaitListLock.exit
  %38 = getelementptr inbounds nuw i8, ptr %0, i64 8
  %39 = load i32, ptr @MyProcNumber, align 4
  %40 = load ptr, ptr @ProcGlobal, align 8
  %41 = load ptr, ptr %40, align 8
  %42 = sext i32 %39 to i64
  %43 = getelementptr inbounds %struct.PGPROC, ptr %41, i64 %42, i32 17
  %44 = load i32, ptr %38, align 4
  %45 = icmp eq i32 %44, -1
  br i1 %45, label %46, label %48

46:                                               ; preds = %37
  %47 = getelementptr inbounds nuw i8, ptr %43, i64 4
  store i32 -1, ptr %47, align 4
  store i32 -1, ptr %43, align 4
  br label %proclist_push_head_offset.exit

48:                                               ; preds = %37
  store i32 %44, ptr %43, align 4
  %49 = load ptr, ptr @ProcGlobal, align 8
  %50 = load ptr, ptr %49, align 8
  %51 = sext i32 %44 to i64
  %52 = getelementptr inbounds %struct.PGPROC, ptr %50, i64 %51, i32 17, i32 1
  store i32 %39, ptr %52, align 4
  br label %proclist_push_head_offset.exit

proclist_push_head_offset.exit:                   ; preds = %46, %48
  %.sink16.i = phi ptr [ %43, %48 ], [ %38, %46 ]
  %.sink.i = phi i32 [ -1, %48 ], [ %39, %46 ]
  %53 = getelementptr inbounds nuw i8, ptr %.sink16.i, i64 4
  store i32 %.sink.i, ptr %53, align 4
  store i32 %39, ptr %38, align 4
  br label %71

54:                                               ; preds = %LWLockWaitListLock.exit
  %55 = load i32, ptr @MyProcNumber, align 4
  %56 = load ptr, ptr @ProcGlobal, align 8
  %57 = load ptr, ptr %56, align 8
  %58 = sext i32 %55 to i64
  %59 = getelementptr inbounds %struct.PGPROC, ptr %57, i64 %58, i32 17
  %60 = getelementptr inbounds nuw i8, ptr %0, i64 12
  %61 = load i32, ptr %60, align 4
  %62 = icmp eq i32 %61, -1
  %63 = getelementptr inbounds nuw i8, ptr %59, i64 4
  br i1 %62, label %64, label %66

64:                                               ; preds = %54
  %65 = getelementptr inbounds nuw i8, ptr %0, i64 8
  store i32 -1, ptr %63, align 4
  store i32 -1, ptr %59, align 4
  store i32 %55, ptr %65, align 4
  br label %proclist_push_tail_offset.exit

66:                                               ; preds = %54
  store i32 %61, ptr %63, align 4
  %67 = load ptr, ptr @ProcGlobal, align 8
  %68 = load ptr, ptr %67, align 8
  %69 = sext i32 %61 to i64
  %70 = getelementptr inbounds %struct.PGPROC, ptr %68, i64 %69, i32 17
  store i32 %55, ptr %70, align 4
  store i32 -1, ptr %59, align 4
  br label %proclist_push_tail_offset.exit

proclist_push_tail_offset.exit:                   ; preds = %64, %66
  store i32 %55, ptr %60, align 4
  br label %71

71:                                               ; preds = %proclist_push_tail_offset.exit, %proclist_push_head_offset.exit
  %72 = atomicrmw and ptr %16, i32 -268435457 seq_cst, align 4
  ret void
}